target datalayout = "e-m:e-p270:32:32-p271:32:32-p272:64:64-i64:64-i128:128-f80:128-n8:16:32:64-S128"
target triple = "x86_64-pc-linux-gnu"

@.str.492 = private unnamed_addr constant [27 x i8] c"failed to import preset %s\00", align 1

; Function Attrs: nounwind uwtable
define internal void @_import_preset_from_file(ptr noundef %0) #0 {
  %2 = alloca ptr, align 8
  store ptr %0, ptr %2, align 8, !tbaa !73
  %3 = load ptr, ptr %2, align 8, !tbaa !73
  %4 = call i32 @dt_presets_import_from_file(ptr noundef %3)
  %5 = icmp ne i32 %4, 0
  br i1 %5, label %9, label %6

6:                                                ; preds = %1
  %7 = call ptr @dcgettext(ptr noundef null, ptr noundef @.str.492, i32 noundef 5) #10
  %8 = load ptr, ptr %2, align 8, !tbaa !73
  call void (ptr, ...) @dt_control_log(ptr noundef %7, ptr noundef %8)
  br label %9

9:                                                ; preds = %6, %1
  ret void
}