; Function Attrs: nounwind uwtable
define internal void @_import_preset_from_file(ptr noundef %0) #0 {
  %2 = tail call i32 @dt_presets_import_from_file(ptr noundef %0) #12
  %.not = icmp eq i32 %2, 0
  br i1 %.not, label %3, label %5

3:                                                ; preds = %1
  %4 = tail call ptr @dcgettext(ptr noundef null, ptr noundef nonnull @.str.492, i32 noundef 5) #12
  tail call void (ptr, ...) @dt_control_log(ptr noundef %4, ptr noundef %0) #12
  br label %5

5:                                                ; preds = %3, %1
  ret void
}